target datalayout = "e-m:e-p270:32:32-p271:32:32-p272:64:64-i64:64-i128:128-f80:128-n8:16:32:64-S128"
target triple = "x86_64-pc-linux-gnu"

%struct.__mm_loadl_epi64_struct = type { i64 }

; Function Attrs: inlinehint nounwind uwtable
define internal void @WebPUint32ToMem(ptr noundef %0, i32 noundef %1) #5 {
  %3 = alloca ptr, align 8
  %4 = alloca i32, align 4
  store ptr %0, ptr %3, align 8, !tbaa !9
  store i32 %1, ptr %4, align 4, !tbaa !11
  %5 = load ptr, ptr %3, align 8, !tbaa !9
  call void @llvm.memcpy.p0.p0.i64(ptr align 1 %5, ptr align 4 %4, i64 4, i1 false)
  ret void
}

; Function Attrs: alwaysinline nounwind uwtable
define internal <2 x i64> @_mm_set_epi8(i8 noundef signext %0, i8 noundef signext %1, i8 noundef signext %2, i8 noundef signext %3, i8 noundef signext %4, i8 noundef signext %5, i8 noundef signext %6, i8 noundef signext %7, i8 noundef signext %8, i8 noundef signext %9, i8 noundef signext %10, i8 noundef signext %11, i8 noundef signext %12, i8 noundef signext %13, i8 noundef signext %14, i8 noundef signext %15) #3 {
  %17 = alloca i8, align 1
  %18 = alloca i8, align 1
  %19 = alloca i8, align 1
  %20 = alloca i8, align 1
  %21 = alloca i8, align 1
  %22 = alloca i8, align 1
  %23 = alloca i8, align 1
  %24 = alloca i8, align 1
  %25 = alloca i8, align 1
  %26 = alloca i8, align 1
  %27 = alloca i8, align 1
  %28 = alloca i8, align 1
  %29 = alloca i8, align 1
  %30 = alloca i8, align 1
  %31 = alloca i8, align 1
  %32 = alloca i8, align 1
  %33 = alloca <16 x i8>, align 16
  store i8 %0, ptr %17, align 1, !tbaa !13
  store i8 %1, ptr %18, align 1, !tbaa !13
  store i8 %2, ptr %19, align 1, !tbaa !13
  store i8 %3, ptr %20, align 1, !tbaa !13
  store i8 %4, ptr %21, align 1, !tbaa !13
  store i8 %5, ptr %22, align 1, !tbaa !13
  store i8 %6, ptr %23, align 1, !tbaa !13
  store i8 %7, ptr %24, align 1, !tbaa !13
  store i8 %8, ptr %25, align 1, !tbaa !13
  store i8 %9, ptr %26, align 1, !tbaa !13
  store i8 %10, ptr %27, align 1, !tbaa !13
  store i8 %11, ptr %28, align 1, !tbaa !13
  store i8 %12, ptr %29, align 1, !tbaa !13
  store i8 %13, ptr %30, align 1, !tbaa !13
  store i8 %14, ptr %31, align 1, !tbaa !13
  store i8 %15, ptr %32, align 1, !tbaa !13
  %34 = load i8, ptr %32, align 1, !tbaa !13
  %35 = insertelement <16 x i8> poison, i8 %34, i32 0
  %36 = load i8, ptr %31, align 1, !tbaa !13
  %37 = insertelement <16 x i8> %35, i8 %36, i32 1
  %38 = load i8, ptr %30, align 1, !tbaa !13
  %39 = insertelement <16 x i8> %37, i8 %38, i32 2
  %40 = load i8, ptr %29, align 1, !tbaa !13
  %41 = insertelement <16 x i8> %39, i8 %40, i32 3
  %42 = load i8, ptr %28, align 1, !tbaa !13
  %43 = insertelement <16 x i8> %41, i8 %42, i32 4
  %44 = load i8, ptr %27, align 1, !tbaa !13
  %45 = insertelement <16 x i8> %43, i8 %44, i32 5
  %46 = load i8, ptr %26, align 1, !tbaa !13
  %47 = insertelement <16 x i8> %45, i8 %46, i32 6
  %48 = load i8, ptr %25, align 1, !tbaa !13
  %49 = insertelement <16 x i8> %47, i8 %48, i32 7
  %50 = load i8, ptr %24, align 1, !tbaa !13
  %51 = insertelement <16 x i8> %49, i8 %50, i32 8
  %52 = load i8, ptr %23, align 1, !tbaa !13
  %53 = insertelement <16 x i8> %51, i8 %52, i32 9
  %54 = load i8, ptr %22, align 1, !tbaa !13
  %55 = insertelement <16 x i8> %53, i8 %54, i32 10
  %56 = load i8, ptr %21, align 1, !tbaa !13
  %57 = insertelement <16 x i8> %55, i8 %56, i32 11
  %58 = load i8, ptr %20, align 1, !tbaa !13
  %59 = insertelement <16 x i8> %57, i8 %58, i32 12
  %60 = load i8, ptr %19, align 1, !tbaa !13
  %61 = insertelement <16 x i8> %59, i8 %60, i32 13
  %62 = load i8, ptr %18, align 1, !tbaa !13
  %63 = insertelement <16 x i8> %61, i8 %62, i32 14
  %64 = load i8, ptr %17, align 1, !tbaa !13
  %65 = insertelement <16 x i8> %63, i8 %64, i32 15
  store <16 x i8> %65, ptr %33, align 16, !tbaa !13
  %66 = load <16 x i8>, ptr %33, align 16, !tbaa !13
  %67 = bitcast <16 x i8> %66 to <2 x i64>
  ret <2 x i64> %67
}

; Function Attrs: inlinehint nounwind uwtable
define internal void @WebPInt32ToMem(ptr noundef %0, i32 noundef %1) #5 {
  %3 = alloca ptr, align 8
  %4 = alloca i32, align 4
  store ptr %0, ptr %3, align 8, !tbaa !9
  store i32 %1, ptr %4, align 4, !tbaa !11
  %5 = load ptr, ptr %3, align 8, !tbaa !9
  %6 = load i32, ptr %4, align 4, !tbaa !11
  call void @WebPUint32ToMem(ptr noundef %5, i32 noundef %6)
  ret void
}

; Function Attrs: alwaysinline nounwind uwtable
define internal i32 @_mm_cvtsi128_si32(<2 x i64> noundef %0) #3 {
  %2 = alloca <2 x i64>, align 16
  %3 = alloca <4 x i32>, align 16
  store <2 x i64> %0, ptr %2, align 16, !tbaa !13
  call void @llvm.lifetime.start.p0(i64 16, ptr %3) #9
  %4 = load <2 x i64>, ptr %2, align 16, !tbaa !13
  %5 = bitcast <2 x i64> %4 to <4 x i32>
  store <4 x i32> %5, ptr %3, align 16, !tbaa !13
  %6 = load <4 x i32>, ptr %3, align 16, !tbaa !13
  %7 = extractelement <4 x i32> %6, i32 0
  call void @llvm.lifetime.end.p0(i64 16, ptr %3) #9
  ret i32 %7
}

; Function Attrs: alwaysinline nounwind uwtable
define internal <2 x i64> @_mm_subs_epu8(<2 x i64> noundef %0, <2 x i64> noundef %1) #3 {
  %3 = alloca <2 x i64>, align 16
  %4 = alloca <2 x i64>, align 16
  store <2 x i64> %0, ptr %3, align 16, !tbaa !13
  store <2 x i64> %1, ptr %4, align 16, !tbaa !13
  %5 = load <2 x i64>, ptr %3, align 16, !tbaa !13
  %6 = bitcast <2 x i64> %5 to <16 x i8>
  %7 = load <2 x i64>, ptr %4, align 16, !tbaa !13
  %8 = bitcast <2 x i64> %7 to <16 x i8>
  %9 = call <16 x i8> @llvm.usub.sat.v16i8(<16 x i8> %6, <16 x i8> %8)
  %10 = bitcast <16 x i8> %9 to <2 x i64>
  ret <2 x i64> %10
}

; Function Attrs: alwaysinline nounwind uwtable
define internal <2 x i64> @_mm_and_si128(<2 x i64> noundef %0, <2 x i64> noundef %1) #3 {
  %3 = alloca <2 x i64>, align 16
  %4 = alloca <2 x i64>, align 16
  store <2 x i64> %0, ptr %3, align 16, !tbaa !13
  store <2 x i64> %1, ptr %4, align 16, !tbaa !13
  %5 = load <2 x i64>, ptr %3, align 16, !tbaa !13
  %6 = load <2 x i64>, ptr %4, align 16, !tbaa !13
  %7 = and <2 x i64> %5, %6
  ret <2 x i64> %7
}

; Function Attrs: alwaysinline nounwind uwtable
define internal <2 x i64> @_mm_xor_si128(<2 x i64> noundef %0, <2 x i64> noundef %1) #3 {
  %3 = alloca <2 x i64>, align 16
  %4 = alloca <2 x i64>, align 16
  store <2 x i64> %0, ptr %3, align 16, !tbaa !13
  store <2 x i64> %1, ptr %4, align 16, !tbaa !13
  %5 = load <2 x i64>, ptr %3, align 16, !tbaa !13
  %6 = load <2 x i64>, ptr %4, align 16, !tbaa !13
  %7 = xor <2 x i64> %5, %6
  ret <2 x i64> %7
}

; Function Attrs: alwaysinline nounwind uwtable
define internal <2 x i64> @_mm_avg_epu8(<2 x i64> noundef %0, <2 x i64> noundef %1) #3 {
  %3 = alloca <2 x i64>, align 16
  %4 = alloca <2 x i64>, align 16
  store <2 x i64> %0, ptr %3, align 16, !tbaa !13
  store <2 x i64> %1, ptr %4, align 16, !tbaa !13
  %5 = load <2 x i64>, ptr %3, align 16, !tbaa !13
  %6 = bitcast <2 x i64> %5 to <16 x i8>
  %7 = load <2 x i64>, ptr %4, align 16, !tbaa !13
  %8 = bitcast <2 x i64> %7 to <16 x i8>
  %9 = call <16 x i8> @llvm.x86.sse2.pavg.b(<16 x i8> %6, <16 x i8> %8)
  %10 = bitcast <16 x i8> %9 to <2 x i64>
  ret <2 x i64> %10
}

; Function Attrs: alwaysinline nounwind uwtable
define internal <2 x i64> @_mm_loadl_epi64(ptr noundef %0) #3 {
  %2 = alloca ptr, align 8
  %3 = alloca <2 x i64>, align 16
  store ptr %0, ptr %2, align 8, !tbaa !3
  %4 = load ptr, ptr %2, align 8, !tbaa !3
  %5 = getelementptr inbounds nuw %struct.__mm_loadl_epi64_struct, ptr %4, i32 0, i32 0
  %6 = load i64, ptr %5, align 1, !tbaa !13
  %7 = insertelement <2 x i64> poison, i64 %6, i32 0
  %8 = insertelement <2 x i64> %7, i64 0, i32 1
  store <2 x i64> %8, ptr %3, align 16, !tbaa !13
  %9 = load <2 x i64>, ptr %3, align 16, !tbaa !13
  ret <2 x i64> %9
}

; Function Attrs: alwaysinline nounwind uwtable
define internal <2 x i64> @_mm_set1_epi8(i8 noundef signext %0) #3 {
  %2 = alloca i8, align 1
  store i8 %0, ptr %2, align 1, !tbaa !13
  %3 = load i8, ptr %2, align 1, !tbaa !13
  %4 = load i8, ptr %2, align 1, !tbaa !13
  %5 = load i8, ptr %2, align 1, !tbaa !13
  %6 = load i8, ptr %2, align 1, !tbaa !13
  %7 = load i8, ptr %2, align 1, !tbaa !13
  %8 = load i8, ptr %2, align 1, !tbaa !13
  %9 = load i8, ptr %2, align 1, !tbaa !13
  %10 = load i8, ptr %2, align 1, !tbaa !13
  %11 = load i8, ptr %2, align 1, !tbaa !13
  %12 = load i8, ptr %2, align 1, !tbaa !13
  %13 = load i8, ptr %2, align 1, !tbaa !13
  %14 = load i8, ptr %2, align 1, !tbaa !13
  %15 = load i8, ptr %2, align 1, !tbaa !13
  %16 = load i8, ptr %2, align 1, !tbaa !13
  %17 = load i8, ptr %2, align 1, !tbaa !13
  %18 = load i8, ptr %2, align 1, !tbaa !13
  %19 = call <2 x i64> @_mm_set_epi8(i8 noundef signext %3, i8 noundef signext %4, i8 noundef signext %5, i8 noundef signext %6, i8 noundef signext %7, i8 noundef signext %8, i8 noundef signext %9, i8 noundef signext %10, i8 noundef signext %11, i8 noundef signext %12, i8 noundef signext %13, i8 noundef signext %14, i8 noundef signext %15, i8 noundef signext %16, i8 noundef signext %17, i8 noundef signext %18)
  ret <2 x i64> %19
}

; Function Attrs: nounwind uwtable
define internal void @VR4_SSE2(ptr noundef %0) #1 {
  %2 = alloca ptr, align 8
  %3 = alloca <2 x i64>, align 16
  %4 = alloca i32, align 4
  %5 = alloca i32, align 4
  %6 = alloca i32, align 4
  %7 = alloca i32, align 4
  %8 = alloca <2 x i64>, align 16
  %9 = alloca <2 x i64>, align 16
  %10 = alloca <2 x i64>, align 16
  %11 = alloca <2 x i64>, align 16
  %12 = alloca <2 x i64>, align 16
  %13 = alloca <2 x i64>, align 16
  %14 = alloca <2 x i64>, align 16
  %15 = alloca <2 x i64>, align 16
  %16 = alloca <2 x i64>, align 16
  store ptr %0, ptr %2, align 8, !tbaa !9
  call void @llvm.lifetime.start.p0(i64 16, ptr %3) #9
  %17 = call <2 x i64> @_mm_set1_epi8(i8 noundef signext 1)
  store <2 x i64> %17, ptr %3, align 16, !tbaa !13
  call void @llvm.lifetime.start.p0(i64 4, ptr %4) #9
  %18 = load ptr, ptr %2, align 8, !tbaa !9
  %19 = getelementptr inbounds i8, ptr %18, i64 -1
  %20 = load i8, ptr %19, align 1, !tbaa !13
  %21 = zext i8 %20 to i32
  store i32 %21, ptr %4, align 4, !tbaa !11
  call void @llvm.lifetime.start.p0(i64 4, ptr %5) #9
  %22 = load ptr, ptr %2, align 8, !tbaa !9
  %23 = getelementptr inbounds i8, ptr %22, i64 31
  %24 = load i8, ptr %23, align 1, !tbaa !13
  %25 = zext i8 %24 to i32
  store i32 %25, ptr %5, align 4, !tbaa !11
  call void @llvm.lifetime.start.p0(i64 4, ptr %6) #9
  %26 = load ptr, ptr %2, align 8, !tbaa !9
  %27 = getelementptr inbounds i8, ptr %26, i64 63
  %28 = load i8, ptr %27, align 1, !tbaa !13
  %29 = zext i8 %28 to i32
  store i32 %29, ptr %6, align 4, !tbaa !11
  call void @llvm.lifetime.start.p0(i64 4, ptr %7) #9
  %30 = load ptr, ptr %2, align 8, !tbaa !9
  %31 = getelementptr inbounds i8, ptr %30, i64 -33
  %32 = load i8, ptr %31, align 1, !tbaa !13
  %33 = zext i8 %32 to i32
  store i32 %33, ptr %7, align 4, !tbaa !11
  call void @llvm.lifetime.start.p0(i64 16, ptr %8) #9
  %34 = load ptr, ptr %2, align 8, !tbaa !9
  %35 = getelementptr inbounds i8, ptr %34, i64 -32
  %36 = getelementptr inbounds i8, ptr %35, i64 -1
  %37 = call <2 x i64> @_mm_loadl_epi64(ptr noundef %36)
  store <2 x i64> %37, ptr %8, align 16, !tbaa !13
  call void @llvm.lifetime.start.p0(i64 16, ptr %9) #9
  %38 = load <2 x i64>, ptr %8, align 16, !tbaa !13
  %39 = bitcast <2 x i64> %38 to <16 x i8>
  %40 = shufflevector <16 x i8> %39, <16 x i8> zeroinitializer, <16 x i32> <i32 1, i32 2, i32 3, i32 4, i32 5, i32 6, i32 7, i32 8, i32 9, i32 10, i32 11, i32 12, i32 13, i32 14, i32 15, i32 16>
  %41 = bitcast <16 x i8> %40 to <2 x i64>
  store <2 x i64> %41, ptr %9, align 16, !tbaa !13
  call void @llvm.lifetime.start.p0(i64 16, ptr %10) #9
  %42 = load <2 x i64>, ptr %8, align 16, !tbaa !13
  %43 = load <2 x i64>, ptr %9, align 16, !tbaa !13
  %44 = call <2 x i64> @_mm_avg_epu8(<2 x i64> noundef %42, <2 x i64> noundef %43)
  store <2 x i64> %44, ptr %10, align 16, !tbaa !13
  call void @llvm.lifetime.start.p0(i64 16, ptr %11) #9
  %45 = load <2 x i64>, ptr %8, align 16, !tbaa !13
  %46 = bitcast <2 x i64> %45 to <16 x i8>
  %47 = shufflevector <16 x i8> zeroinitializer, <16 x i8> %46, <16 x i32> <i32 15, i32 16, i32 17, i32 18, i32 19, i32 20, i32 21, i32 22, i32 23, i32 24, i32 25, i32 26, i32 27, i32 28, i32 29, i32 30>
  %48 = bitcast <16 x i8> %47 to <2 x i64>
  store <2 x i64> %48, ptr %11, align 16, !tbaa !13
  call void @llvm.lifetime.start.p0(i64 16, ptr %12) #9
  %49 = load <2 x i64>, ptr %11, align 16, !tbaa !13
  %50 = bitcast <2 x i64> %49 to <8 x i16>
  %51 = load i32, ptr %4, align 4, !tbaa !11
  %52 = load i32, ptr %7, align 4, !tbaa !11
  %53 = shl i32 %52, 8
  %54 = or i32 %51, %53
  %55 = trunc i32 %54 to i16
  %56 = sext i16 %55 to i32
  %57 = trunc i32 %56 to i16
  %58 = insertelement <8 x i16> %50, i16 %57, i64 0
  %59 = bitcast <8 x i16> %58 to <2 x i64>
  store <2 x i64> %59, ptr %12, align 16, !tbaa !13
  call void @llvm.lifetime.start.p0(i64 16, ptr %13) #9
  %60 = load <2 x i64>, ptr %12, align 16, !tbaa !13
  %61 = load <2 x i64>, ptr %9, align 16, !tbaa !13
  %62 = call <2 x i64> @_mm_avg_epu8(<2 x i64> noundef %60, <2 x i64> noundef %61)
  store <2 x i64> %62, ptr %13, align 16, !tbaa !13
  call void @llvm.lifetime.start.p0(i64 16, ptr %14) #9
  %63 = load <2 x i64>, ptr %12, align 16, !tbaa !13
  %64 = load <2 x i64>, ptr %9, align 16, !tbaa !13
  %65 = call <2 x i64> @_mm_xor_si128(<2 x i64> noundef %63, <2 x i64> noundef %64)
  %66 = load <2 x i64>, ptr %3, align 16, !tbaa !13
  %67 = call <2 x i64> @_mm_and_si128(<2 x i64> noundef %65, <2 x i64> noundef %66)
  store <2 x i64> %67, ptr %14, align 16, !tbaa !13
  call void @llvm.lifetime.start.p0(i64 16, ptr %15) #9
  %68 = load <2 x i64>, ptr %13, align 16, !tbaa !13
  %69 = load <2 x i64>, ptr %14, align 16, !tbaa !13
  %70 = call <2 x i64> @_mm_subs_epu8(<2 x i64> noundef %68, <2 x i64> noundef %69)
  store <2 x i64> %70, ptr %15, align 16, !tbaa !13
  call void @llvm.lifetime.start.p0(i64 16, ptr %16) #9
  %71 = load <2 x i64>, ptr %15, align 16, !tbaa !13
  %72 = load <2 x i64>, ptr %8, align 16, !tbaa !13
  %73 = call <2 x i64> @_mm_avg_epu8(<2 x i64> noundef %71, <2 x i64> noundef %72)
  store <2 x i64> %73, ptr %16, align 16, !tbaa !13
  %74 = load ptr, ptr %2, align 8, !tbaa !9
  %75 = getelementptr inbounds i8, ptr %74, i64 0
  %76 = load <2 x i64>, ptr %10, align 16, !tbaa !13
  %77 = call i32 @_mm_cvtsi128_si32(<2 x i64> noundef %76)
  call void @WebPInt32ToMem(ptr noundef %75, i32 noundef %77)
  %78 = load ptr, ptr %2, align 8, !tbaa !9
  %79 = getelementptr inbounds i8, ptr %78, i64 32
  %80 = load <2 x i64>, ptr %16, align 16, !tbaa !13
  %81 = call i32 @_mm_cvtsi128_si32(<2 x i64> noundef %80)
  call void @WebPInt32ToMem(ptr noundef %79, i32 noundef %81)
  %82 = load ptr, ptr %2, align 8, !tbaa !9
  %83 = getelementptr inbounds i8, ptr %82, i64 64
  %84 = load <2 x i64>, ptr %10, align 16, !tbaa !13
  %85 = bitcast <2 x i64> %84 to <16 x i8>
  %86 = shufflevector <16 x i8> zeroinitializer, <16 x i8> %85, <16 x i32> <i32 15, i32 16, i32 17, i32 18, i32 19, i32 20, i32 21, i32 22, i32 23, i32 24, i32 25, i32 26, i32 27, i32 28, i32 29, i32 30>
  %87 = bitcast <16 x i8> %86 to <2 x i64>
  %88 = call i32 @_mm_cvtsi128_si32(<2 x i64> noundef %87)
  call void @WebPInt32ToMem(ptr noundef %83, i32 noundef %88)
  %89 = load ptr, ptr %2, align 8, !tbaa !9
  %90 = getelementptr inbounds i8, ptr %89, i64 96
  %91 = load <2 x i64>, ptr %16, align 16, !tbaa !13
  %92 = bitcast <2 x i64> %91 to <16 x i8>
  %93 = shufflevector <16 x i8> zeroinitializer, <16 x i8> %92, <16 x i32> <i32 15, i32 16, i32 17, i32 18, i32 19, i32 20, i32 21, i32 22, i32 23, i32 24, i32 25, i32 26, i32 27, i32 28, i32 29, i32 30>
  %94 = bitcast <16 x i8> %93 to <2 x i64>
  %95 = call i32 @_mm_cvtsi128_si32(<2 x i64> noundef %94)
  call void @WebPInt32ToMem(ptr noundef %90, i32 noundef %95)
  %96 = load i32, ptr %5, align 4, !tbaa !11
  %97 = load i32, ptr %4, align 4, !tbaa !11
  %98 = mul nsw i32 2, %97
  %99 = add nsw i32 %96, %98
  %100 = load i32, ptr %7, align 4, !tbaa !11
  %101 = add nsw i32 %99, %100
  %102 = add nsw i32 %101, 2
  %103 = ashr i32 %102, 2
  %104 = trunc i32 %103 to i8
  %105 = load ptr, ptr %2, align 8, !tbaa !9
  %106 = getelementptr inbounds i8, ptr %105, i64 64
  store i8 %104, ptr %106, align 1, !tbaa !13
  %107 = load i32, ptr %6, align 4, !tbaa !11
  %108 = load i32, ptr %5, align 4, !tbaa !11
  %109 = mul nsw i32 2, %108
  %110 = add nsw i32 %107, %109
  %111 = load i32, ptr %4, align 4, !tbaa !11
  %112 = add nsw i32 %110, %111
  %113 = add nsw i32 %112, 2
  %114 = ashr i32 %113, 2
  %115 = trunc i32 %114 to i8
  %116 = load ptr, ptr %2, align 8, !tbaa !9
  %117 = getelementptr inbounds i8, ptr %116, i64 96
  store i8 %115, ptr %117, align 1, !tbaa !13
  call void @llvm.lifetime.end.p0(i64 16, ptr %16) #9
  call void @llvm.lifetime.end.p0(i64 16, ptr %15) #9
  call void @llvm.lifetime.end.p0(i64 16, ptr %14) #9
  call void @llvm.lifetime.end.p0(i64 16, ptr %13) #9
  call void @llvm.lifetime.end.p0(i64 16, ptr %12) #9
  call void @llvm.lifetime.end.p0(i64 16, ptr %11) #9
  call void @llvm.lifetime.end.p0(i64 16, ptr %10) #9
  call void @llvm.lifetime.end.p0(i64 16, ptr %9) #9
  call void @llvm.lifetime.end.p0(i64 16, ptr %8) #9
  call void @llvm.lifetime.end.p0(i64 4, ptr %7) #9
  call void @llvm.lifetime.end.p0(i64 4, ptr %6) #9
  call void @llvm.lifetime.end.p0(i64 4, ptr %5) #9
  call void @llvm.lifetime.end.p0(i64 4, ptr %4) #9
  call void @llvm.lifetime.end.p0(i64 16, ptr %3) #9
  ret void
}