; Function Attrs: mustprogress nofree norecurse nosync nounwind willreturn memory(argmem: readwrite) uwtable
define internal void @VR4_SSE2(ptr noundef captures(none) initializes((0, 4), (32, 36), (64, 68), (96, 100)) %0) #1 {
  %2 = getelementptr inbounds i8, ptr %0, i64 -1
  %3 = load i8, ptr %2, align 1, !tbaa !7
  %4 = zext i8 %3 to i32
  %5 = getelementptr inbounds nuw i8, ptr %0, i64 31
  %6 = load i8, ptr %5, align 1, !tbaa !7
  %7 = zext i8 %6 to i32
  %8 = getelementptr inbounds nuw i8, ptr %0, i64 63
  %9 = load i8, ptr %8, align 1, !tbaa !7
  %10 = zext i8 %9 to i32
  %11 = getelementptr inbounds i8, ptr %0, i64 -33
  %12 = load i8, ptr %11, align 1, !tbaa !7
  %13 = zext i8 %12 to i32
  %14 = load i64, ptr %11, align 1, !tbaa !7
  %15 = insertelement <2 x i64> <i64 poison, i64 0>, i64 %14, i64 0
  %16 = bitcast <2 x i64> %15 to <16 x i8>
  %17 = shufflevector <16 x i8> %16, <16 x i8> <i8 0, i8 poison, i8 poison, i8 poison, i8 poison, i8 poison, i8 poison, i8 poison, i8 poison, i8 poison, i8 poison, i8 poison, i8 poison, i8 poison, i8 poison, i8 poison>, <16 x i32> <i32 1, i32 2, i32 3, i32 4, i32 5, i32 6, i32 7, i32 8, i32 9, i32 10, i32 11, i32 12, i32 13, i32 14, i32 15, i32 16>
  %18 = tail call <16 x i8> @llvm.x86.sse2.pavg.b(<16 x i8> %16, <16 x i8> %17)
  %19 = shufflevector <16 x i8> %16, <16 x i8> poison, <16 x i32> <i32 poison, i32 poison, i32 1, i32 2, i32 3, i32 4, i32 5, i32 6, i32 7, i32 8, i32 9, i32 10, i32 11, i32 12, i32 13, i32 14>
  %20 = bitcast <16 x i8> %19 to <8 x i16>
  %21 = shl nuw nsw i32 %13, 8
  %22 = or disjoint i32 %21, %4
  %23 = trunc nuw i32 %22 to i16
  %24 = insertelement <8 x i16> %20, i16 %23, i64 0
  %25 = bitcast <8 x i16> %24 to <16 x i8>
  %26 = tail call <16 x i8> @llvm.x86.sse2.pavg.b(<16 x i8> %25, <16 x i8> %17)
  %27 = xor <16 x i8> %17, %25
  %28 = and <16 x i8> %27, splat (i8 1)
  %29 = tail call <16 x i8> @llvm.usub.sat.v16i8(<16 x i8> %26, <16 x i8> %28)
  %30 = tail call <16 x i8> @llvm.x86.sse2.pavg.b(<16 x i8> %29, <16 x i8> %16)
  %31 = bitcast <16 x i8> %18 to <4 x i32>
  %32 = extractelement <4 x i32> %31, i64 0
  store i32 %32, ptr %0, align 1
  %33 = getelementptr inbounds nuw i8, ptr %0, i64 32
  %34 = bitcast <16 x i8> %30 to <4 x i32>
  %35 = extractelement <4 x i32> %34, i64 0
  store i32 %35, ptr %33, align 1
  %36 = getelementptr inbounds nuw i8, ptr %0, i64 64
  %37 = shufflevector <16 x i8> <i8 poison, i8 poison, i8 poison, i8 poison, i8 poison, i8 poison, i8 poison, i8 poison, i8 poison, i8 poison, i8 poison, i8 poison, i8 poison, i8 poison, i8 poison, i8 0>, <16 x i8> %18, <16 x i32> <i32 15, i32 16, i32 17, i32 18, i32 poison, i32 poison, i32 poison, i32 poison, i32 poison, i32 poison, i32 poison, i32 poison, i32 poison, i32 poison, i32 poison, i32 poison>
  %38 = bitcast <16 x i8> %37 to <4 x i32>
  %39 = extractelement <4 x i32> %38, i64 0
  store i32 %39, ptr %36, align 1
  %40 = getelementptr inbounds nuw i8, ptr %0, i64 96
  %41 = shufflevector <16 x i8> <i8 poison, i8 poison, i8 poison, i8 poison, i8 poison, i8 poison, i8 poison, i8 poison, i8 poison, i8 poison, i8 poison, i8 poison, i8 poison, i8 poison, i8 poison, i8 0>, <16 x i8> %30, <16 x i32> <i32 15, i32 16, i32 17, i32 18, i32 poison, i32 poison, i32 poison, i32 poison, i32 poison, i32 poison, i32 poison, i32 poison, i32 poison, i32 poison, i32 poison, i32 poison>
  %42 = bitcast <16 x i8> %41 to <4 x i32>
  %43 = extractelement <4 x i32> %42, i64 0
  store i32 %43, ptr %40, align 1
  %44 = shl nuw nsw i32 %4, 1
  %45 = add nuw nsw i32 %7, 2
  %46 = add nuw nsw i32 %45, %44
  %47 = add nuw nsw i32 %46, %13
  %48 = lshr i32 %47, 2
  %49 = trunc nuw i32 %48 to i8
  store i8 %49, ptr %36, align 1, !tbaa !7
  %50 = shl nuw nsw i32 %7, 1
  %51 = add nuw nsw i32 %4, 2
  %52 = add nuw nsw i32 %51, %10
  %53 = add nuw nsw i32 %52, %50
  %54 = lshr i32 %53, 2
  %55 = trunc nuw i32 %54 to i8
  store i8 %55, ptr %40, align 1, !tbaa !7
  ret void
}